target datalayout = "e-m:e-p270:32:32-p271:32:32-p272:64:64-i64:64-i128:128-f80:128-n8:16:32:64-S128"
target triple = "x86_64-pc-linux-gnu"

%struct.AVTextFormatContext = type { ptr, ptr, ptr, ptr, ptr, ptr, i32, i32, [12 x i32], [12 x [100 x i32]], [12 x ptr], [12 x %struct.AVBPrint], i32, i32, i32, i32, i32, ptr, i32, ptr, i32 }
%struct.AVBPrint = type { ptr, i32, i32, i32, [1 x i8], [1000 x i8] }
%struct.JSONContext = type { ptr, i32, i32, ptr, ptr }

@.str.6 = private unnamed_addr constant [3 x i8] c", \00", align 1
@.str.7 = private unnamed_addr constant [3 x i8] c",\0A\00", align 1
@.str.8 = private unnamed_addr constant [2 x i8] c" \00", align 1
@.str.9 = private unnamed_addr constant [2 x i8] c"\0A\00", align 1

; Function Attrs: cold nounwind optsize uwtable
define internal i32 @json_init(ptr noundef %0) #0 {
  %2 = alloca ptr, align 8
  %3 = alloca ptr, align 8
  store ptr %0, ptr %2, align 8, !tbaa !4
  call void @llvm.lifetime.start.p0(i64 8, ptr %3) #7
  %4 = load ptr, ptr %2, align 8, !tbaa !4
  %5 = getelementptr inbounds nuw %struct.AVTextFormatContext, ptr %4, i32 0, i32 4
  %6 = load ptr, ptr %5, align 8, !tbaa !9
  store ptr %6, ptr %3, align 8, !tbaa !18
  %7 = load ptr, ptr %3, align 8, !tbaa !18
  %8 = getelementptr inbounds nuw %struct.JSONContext, ptr %7, i32 0, i32 2
  %9 = load i32, ptr %8, align 4, !tbaa !20
  %10 = icmp ne i32 %9, 0
  %11 = select i1 %10, ptr @.str.6, ptr @.str.7
  %12 = load ptr, ptr %3, align 8, !tbaa !18
  %13 = getelementptr inbounds nuw %struct.JSONContext, ptr %12, i32 0, i32 3
  store ptr %11, ptr %13, align 8, !tbaa !22
  %14 = load ptr, ptr %3, align 8, !tbaa !18
  %15 = getelementptr inbounds nuw %struct.JSONContext, ptr %14, i32 0, i32 2
  %16 = load i32, ptr %15, align 4, !tbaa !20
  %17 = icmp ne i32 %16, 0
  %18 = select i1 %17, ptr @.str.8, ptr @.str.9
  %19 = load ptr, ptr %3, align 8, !tbaa !18
  %20 = getelementptr inbounds nuw %struct.JSONContext, ptr %19, i32 0, i32 4
  store ptr %18, ptr %20, align 8, !tbaa !23
  call void @llvm.lifetime.end.p0(i64 8, ptr %3) #7
  ret i32 0
}