; Function Attrs: cold mustprogress nofree norecurse nosync nounwind optsize willreturn memory(readwrite, inaccessiblemem: none) uwtable
define internal noundef i32 @json_init(ptr noundef readonly captures(none) %0) #0 {
  %2 = getelementptr inbounds nuw i8, ptr %0, i64 32
  %3 = load ptr, ptr %2, align 8, !tbaa !4
  %4 = getelementptr inbounds nuw i8, ptr %3, i64 12
  %5 = load i32, ptr %4, align 4, !tbaa !16
  %.not = icmp eq i32 %5, 0
  %6 = select i1 %.not, ptr @.str.7, ptr @.str.6
  %7 = getelementptr inbounds nuw i8, ptr %3, i64 16
  store ptr %6, ptr %7, align 8, !tbaa !18
  %8 = select i1 %.not, ptr @.str.9, ptr @.str.8
  %9 = getelementptr inbounds nuw i8, ptr %3, i64 24
  store ptr %8, ptr %9, align 8, !tbaa !19
  ret i32 0
}